ccopy_reg
_reconstructor
p1
(csklearn.linear_model.logistic
LogisticRegression
p2
c__builtin__
object
p3
NtRp4
(dp5
S'warm_start'
p6
I00
sS'C'
F100000
sS'classes_'
p7
cnumpy.core.multiarray
_reconstruct
p8
(cnumpy
ndarray
p9
(I0
tS'b'
tRp10
(I1
(I2
tcnumpy
dtype
p11
(S'f8'
I0
I1
tRp12
(I3
S'<'
NNNI-1
I-1
I0
tbI00
S'\x00\x00\x00\x00\x00\x00\x00\x00\x00\x00\x00\x00\x00\x00\xf0?'
tbsS'n_jobs'
p13
I1
sS'verbose'
p14
I0
sS'fit_intercept'
p15
I01
sS'max_iter'
p16
I100
sS'class_weight'
p17
NsS'n_iter_'
p18
g8
(g9
(I0
tS'b'
tRp19
(I1
(I1
tg11
(S'i4'
I0
I1
tRp20
(I3
S'<'
NNNI-1
I-1
I0
tbI00
S'\x0c\x00\x00\x00'
tbsS'intercept_'
p21
g8
(g9
(I0
tS'b'
tRp22
(I1
(I1
tg12
I00
S'0\x99\xd4\xb1.\xcb\r\xc0'
tbsS'penalty'
p23
S'l2'
p24
sS'multi_class'
p25
S'ovr'
p26
sS'random_state'
p27
NsS'_sklearn_version'
p28
S'0.18.1'
p29
sS'dual'
p30
I00
sS'tol'
p31
F0.0001
sS'coef_'
p32
g8
(g9
(I0
tS'b'
tRp33
(I1
(I1
I3
tg12
I01
S'\xda1\x15T\x19\xba\xb7?\x81W\xae\xe1 )\xae\xbfD"\xa3\x08\x91\xc1\x93\xbf'
tbsS'solver'
p34
S'liblinear'
p35
sS'intercept_scaling'
p36
I1
sb.